target datalayout = "e-m:e-p270:32:32-p271:32:32-p272:64:64-i64:64-i128:128-f80:128-n8:16:32:64-S128"
target triple = "x86_64-pc-linux-gnu"

%struct.cli_pcre_data = type { ptr, ptr, i32, ptr, i32 }

@.str = private unnamed_addr constant [63 x i8] c"cli_pcre_addoptions: unknown/extra pcre option encountered %c\0A\00", align 1

; Function Attrs: nounwind uwtable
define i32 @cli_pcre_addoptions(ptr noundef %0, ptr noundef %1, i32 noundef %2) #0 {
  %4 = alloca i32, align 4
  %5 = alloca ptr, align 8
  %6 = alloca ptr, align 8
  %7 = alloca i32, align 4
  store ptr %0, ptr %5, align 8
  store ptr %1, ptr %6, align 8
  store i32 %2, ptr %7, align 4
  %8 = load ptr, ptr %5, align 8
  %9 = icmp ne ptr %8, null
  br i1 %9, label %10, label %17

10:                                               ; preds = %3
  %11 = load ptr, ptr %6, align 8
  %12 = icmp ne ptr %11, null
  br i1 %12, label %13, label %17

13:                                               ; preds = %10
  %14 = load ptr, ptr %6, align 8
  %15 = load ptr, ptr %14, align 8
  %16 = icmp ne ptr %15, null
  br i1 %16, label %18, label %17

17:                                               ; preds = %13, %10, %3
  store i32 2, ptr %4, align 4
  br label %79

18:                                               ; preds = %13
  br label %19

19:                                               ; preds = %74, %18
  %20 = load ptr, ptr %6, align 8
  %21 = load ptr, ptr %20, align 8
  %22 = load i8, ptr %21, align 1
  %23 = sext i8 %22 to i32
  %24 = icmp ne i32 %23, 0
  br i1 %24, label %25, label %78

25:                                               ; preds = %19
  %26 = load ptr, ptr %6, align 8
  %27 = load ptr, ptr %26, align 8
  %28 = load i8, ptr %27, align 1
  %29 = sext i8 %28 to i32
  switch i32 %29, label %65 [
    i32 105, label %30
    i32 115, label %35
    i32 109, label %40
    i32 120, label %45
    i32 65, label %50
    i32 69, label %55
    i32 85, label %60
  ]

30:                                               ; preds = %25
  %31 = load ptr, ptr %5, align 8
  %32 = getelementptr inbounds %struct.cli_pcre_data, ptr %31, i32 0, i32 2
  %33 = load i32, ptr %32, align 8
  %34 = or i32 %33, 8
  store i32 %34, ptr %32, align 8
  br label %74

35:                                               ; preds = %25
  %36 = load ptr, ptr %5, align 8
  %37 = getelementptr inbounds %struct.cli_pcre_data, ptr %36, i32 0, i32 2
  %38 = load i32, ptr %37, align 8
  %39 = or i32 %38, 32
  store i32 %39, ptr %37, align 8
  br label %74

40:                                               ; preds = %25
  %41 = load ptr, ptr %5, align 8
  %42 = getelementptr inbounds %struct.cli_pcre_data, ptr %41, i32 0, i32 2
  %43 = load i32, ptr %42, align 8
  %44 = or i32 %43, 1024
  store i32 %44, ptr %42, align 8
  br label %74

45:                                               ; preds = %25
  %46 = load ptr, ptr %5, align 8
  %47 = getelementptr inbounds %struct.cli_pcre_data, ptr %46, i32 0, i32 2
  %48 = load i32, ptr %47, align 8
  %49 = or i32 %48, 128
  store i32 %49, ptr %47, align 8
  br label %74

50:                                               ; preds = %25
  %51 = load ptr, ptr %5, align 8
  %52 = getelementptr inbounds %struct.cli_pcre_data, ptr %51, i32 0, i32 2
  %53 = load i32, ptr %52, align 8
  %54 = or i32 %53, -2147483648
  store i32 %54, ptr %52, align 8
  br label %74

55:                                               ; preds = %25
  %56 = load ptr, ptr %5, align 8
  %57 = getelementptr inbounds %struct.cli_pcre_data, ptr %56, i32 0, i32 2
  %58 = load i32, ptr %57, align 8
  %59 = or i32 %58, 16
  store i32 %59, ptr %57, align 8
  br label %74

60:                                               ; preds = %25
  %61 = load ptr, ptr %5, align 8
  %62 = getelementptr inbounds %struct.cli_pcre_data, ptr %61, i32 0, i32 2
  %63 = load i32, ptr %62, align 8
  %64 = or i32 %63, 262144
  store i32 %64, ptr %62, align 8
  br label %74

65:                                               ; preds = %25
  %66 = load i32, ptr %7, align 4
  %67 = icmp ne i32 %66, 0
  br i1 %67, label %68, label %73

68:                                               ; preds = %65
  %69 = load ptr, ptr %6, align 8
  %70 = load ptr, ptr %69, align 8
  %71 = load i8, ptr %70, align 1
  %72 = sext i8 %71 to i32
  call void (ptr, ...) @cli_errmsg(ptr noundef @.str, i32 noundef %72)
  store i32 4, ptr %4, align 4
  br label %79

73:                                               ; preds = %65
  store i32 27, ptr %4, align 4
  br label %79

74:                                               ; preds = %60, %55, %50, %45, %40, %35, %30
  %75 = load ptr, ptr %6, align 8
  %76 = load ptr, ptr %75, align 8
  %77 = getelementptr inbounds i8, ptr %76, i32 1
  store ptr %77, ptr %75, align 8
  br label %19

78:                                               ; preds = %19
  store i32 0, ptr %4, align 4
  br label %79

79:                                               ; preds = %78, %73, %68, %17
  %80 = load i32, ptr %4, align 4
  ret i32 %80
}