; Function Attrs: nounwind uwtable
define noundef i32 @cli_pcre_addoptions(ptr noundef %0, ptr noundef %1, i32 noundef %2) local_unnamed_addr #0 {
  %4 = icmp ne ptr %0, null
  %5 = icmp ne ptr %1, null
  %or.cond = and i1 %4, %5
  br i1 %or.cond, label %6, label %.loopexit

6:                                                ; preds = %3
  %7 = load ptr, ptr %1, align 8
  %.not = icmp eq ptr %7, null
  br i1 %.not, label %.loopexit, label %.preheader

.preheader:                                       ; preds = %6
  %8 = getelementptr inbounds i8, ptr %0, i64 16
  br label %9

9:                                                ; preds = %.preheader, %21
  %10 = phi ptr [ %7, %.preheader ], [ %25, %21 ]
  %11 = load i8, ptr %10, align 1
  switch i8 %11, label %18 [
    i8 0, label %.loopexit
    i8 105, label %21
    i8 115, label %12
    i8 109, label %13
    i8 120, label %14
    i8 65, label %15
    i8 69, label %16
    i8 85, label %17
  ]

12:                                               ; preds = %9
  br label %21

13:                                               ; preds = %9
  br label %21

14:                                               ; preds = %9
  br label %21

15:                                               ; preds = %9
  br label %21

16:                                               ; preds = %9
  br label %21

17:                                               ; preds = %9
  br label %21

18:                                               ; preds = %9
  %.not20 = icmp eq i32 %2, 0
  br i1 %.not20, label %.loopexit, label %19

19:                                               ; preds = %18
  %20 = sext i8 %11 to i32
  tail call void (ptr, ...) @cli_errmsg(ptr noundef nonnull @.str, i32 noundef %20) #6
  br label %.loopexit

21:                                               ; preds = %9, %17, %16, %15, %14, %13, %12
  %.sink26 = phi i32 [ 262144, %17 ], [ 16, %16 ], [ -2147483648, %15 ], [ 128, %14 ], [ 1024, %13 ], [ 32, %12 ], [ 8, %9 ]
  %22 = load i32, ptr %8, align 8
  %23 = or i32 %22, %.sink26
  store i32 %23, ptr %8, align 8
  %24 = load ptr, ptr %1, align 8
  %25 = getelementptr inbounds i8, ptr %24, i64 1
  store ptr %25, ptr %1, align 8
  br label %9

.loopexit:                                        ; preds = %9, %18, %3, %6, %19
  %.0 = phi i32 [ 4, %19 ], [ 2, %6 ], [ 2, %3 ], [ 27, %18 ], [ 0, %9 ]
  ret i32 %.0
}